target datalayout = "e-m:e-p270:32:32-p271:32:32-p272:64:64-i64:64-i128:128-f80:128-n8:16:32:64-S128"
target triple = "x86_64-pc-linux-gnu"

%"struct.absl::cord_internal::CordRep" = type { i64, %"class.absl::cord_internal::RefcountAndFlags", i8, [3 x i8] }
%"class.absl::cord_internal::RefcountAndFlags" = type { %"struct.std::atomic" }
%"struct.std::atomic" = type { %"struct.std::__atomic_base" }
%"struct.std::__atomic_base" = type { i32 }
%"class.absl::FunctionRef" = type { %"union.absl::functional_internal::VoidPtr", ptr }
%"union.absl::functional_internal::VoidPtr" = type { ptr }
%class.anon.4 = type { ptr }

; Function Attrs: mustprogress nounwind uwtable
define internal void @"_ZN4absl19functional_internal13AssertNonNullIZNS_13cord_internal12CordRepBtree10AppendSlowEPS3_PNS2_7CordRepEE3$_0EEvRKT_"(ptr noundef nonnull align 8 dereferenceable(8) %0) #6 {
  %2 = alloca ptr, align 8
  store ptr %0, ptr %2, align 8, !tbaa !137
  ret void
}

; Function Attrs: mustprogress nounwind uwtable
define linkonce_odr dso_local noundef i32 @_ZNK4absl13cord_internal12CordRepBtree6heightEv(ptr noundef nonnull align 8 dereferenceable(64) %0) #6 comdat align 2 {
  %2 = alloca ptr, align 8
  store ptr %0, ptr %2, align 8, !tbaa !4
  %3 = load ptr, ptr %2, align 8
  %4 = getelementptr inbounds nuw %"struct.absl::cord_internal::CordRep", ptr %3, i32 0, i32 3
  %5 = getelementptr inbounds [3 x i8], ptr %4, i64 0, i64 0
  %6 = load i8, ptr %5, align 1, !tbaa !23
  %7 = zext i8 %6 to i32
  ret i32 %7
}

; Function Attrs: mustprogress uwtable
define internal void @"_ZN4absl11FunctionRefIFvPNS_13cord_internal7CordRepEmmEEC2IZNS1_12CordRepBtree10AppendSlowEPS7_S3_E3$_0vEERKT_"(ptr noundef nonnull align 8 dereferenceable(16) %0, ptr noundef nonnull align 8 dereferenceable(8) %1) unnamed_addr #4 align 2 {
  %3 = alloca ptr, align 8
  %4 = alloca ptr, align 8
  store ptr %0, ptr %3, align 8, !tbaa !135
  store ptr %1, ptr %4, align 8, !tbaa !137
  %5 = load ptr, ptr %3, align 8
  %6 = getelementptr inbounds nuw %"class.absl::FunctionRef", ptr %5, i32 0, i32 1
  store ptr @"_ZN4absl19functional_internal12InvokeObjectIZNS_13cord_internal12CordRepBtree10AppendSlowEPS3_PNS2_7CordRepEE3$_0vJS6_mmEEET0_NS0_7VoidPtrEDpNS0_8ForwardTIT1_E4typeE", ptr %6, align 8, !tbaa !138
  %7 = load ptr, ptr %4, align 8, !tbaa !137
  call void @"_ZN4absl19functional_internal13AssertNonNullIZNS_13cord_internal12CordRepBtree10AppendSlowEPS3_PNS2_7CordRepEE3$_0EEvRKT_"(ptr noundef nonnull align 8 dereferenceable(8) %7)
  %8 = load ptr, ptr %4, align 8, !tbaa !137
  %9 = getelementptr inbounds nuw %"class.absl::FunctionRef", ptr %5, i32 0, i32 0
  store ptr %8, ptr %9, align 8, !tbaa !23
  ret void
}

; Function Attrs: mustprogress uwtable
define dso_local noundef ptr @_ZN4absl13cord_internal12CordRepBtree10MergeTreesEPS1_S2_(ptr noundef %0, ptr noundef %1) #4 align 2 {
  %3 = alloca ptr, align 8
  %4 = alloca ptr, align 8
  store ptr %0, ptr %3, align 8, !tbaa !4
  store ptr %1, ptr %4, align 8, !tbaa !4
  %5 = load ptr, ptr %3, align 8, !tbaa !4
  %6 = call noundef i32 @_ZNK4absl13cord_internal12CordRepBtree6heightEv(ptr noundef nonnull align 8 dereferenceable(64) %5)
  %7 = load ptr, ptr %4, align 8, !tbaa !4
  %8 = call noundef i32 @_ZNK4absl13cord_internal12CordRepBtree6heightEv(ptr noundef nonnull align 8 dereferenceable(64) %7)
  %9 = icmp sge i32 %6, %8
  br i1 %9, label %10, label %14

10:                                               ; preds = %2
  %11 = load ptr, ptr %3, align 8, !tbaa !4
  %12 = load ptr, ptr %4, align 8, !tbaa !4
  %13 = call noundef ptr @_ZN4absl13cord_internal12CordRepBtree5MergeILNS1_8EdgeTypeE1EEEPS1_S4_S4_(ptr noundef %11, ptr noundef %12)
  br label %18

14:                                               ; preds = %2
  %15 = load ptr, ptr %4, align 8, !tbaa !4
  %16 = load ptr, ptr %3, align 8, !tbaa !4
  %17 = call noundef ptr @_ZN4absl13cord_internal12CordRepBtree5MergeILNS1_8EdgeTypeE0EEEPS1_S4_S4_(ptr noundef %15, ptr noundef %16)
  br label %18

18:                                               ; preds = %14, %10
  %19 = phi ptr [ %13, %10 ], [ %17, %14 ]
  ret ptr %19
}

; Function Attrs: inlinehint mustprogress nounwind uwtable
define linkonce_odr dso_local noundef ptr @_ZN4absl13cord_internal7CordRep5btreeEv(ptr noundef nonnull align 8 dereferenceable(16) %0) #8 comdat align 2 {
  %2 = alloca ptr, align 8
  store ptr %0, ptr %2, align 8, !tbaa !9
  %3 = load ptr, ptr %2, align 8
  ret ptr %3
}

; Function Attrs: mustprogress nounwind uwtable
define linkonce_odr dso_local noundef zeroext i1 @_ZNK4absl13cord_internal7CordRep7IsBtreeEv(ptr noundef nonnull align 8 dereferenceable(16) %0) #6 comdat align 2 {
  %2 = alloca ptr, align 8
  store ptr %0, ptr %2, align 8, !tbaa !9
  %3 = load ptr, ptr %2, align 8
  %4 = getelementptr inbounds nuw %"struct.absl::cord_internal::CordRep", ptr %3, i32 0, i32 2
  %5 = load i8, ptr %4, align 4, !tbaa !79
  %6 = zext i8 %5 to i32
  %7 = icmp eq i32 %6, 3
  ret i1 %7
}

; Function Attrs: mustprogress uwtable
define dso_local noundef ptr @_ZN4absl13cord_internal12CordRepBtree10AppendSlowEPS1_PNS0_7CordRepE(ptr noundef %0, ptr noundef %1) #4 align 2 {
  %3 = alloca ptr, align 8
  %4 = alloca ptr, align 8
  %5 = alloca ptr, align 8
  %6 = alloca %class.anon.4, align 8
  %7 = alloca %"class.absl::FunctionRef", align 8
  store ptr %0, ptr %4, align 8, !tbaa !4
  store ptr %1, ptr %5, align 8, !tbaa !9
  %8 = load ptr, ptr %5, align 8, !tbaa !9
  %9 = call noundef zeroext i1 @_ZNK4absl13cord_internal7CordRep7IsBtreeEv(ptr noundef nonnull align 8 dereferenceable(16) %8)
  %10 = zext i1 %9 to i64
  %11 = call i64 @llvm.expect.i64(i64 %10, i64 1)
  %12 = icmp ne i64 %11, 0
  br i1 %12, label %13, label %18

13:                                               ; preds = %2
  %14 = load ptr, ptr %4, align 8, !tbaa !4
  %15 = load ptr, ptr %5, align 8, !tbaa !9
  %16 = call noundef ptr @_ZN4absl13cord_internal7CordRep5btreeEv(ptr noundef nonnull align 8 dereferenceable(16) %15)
  %17 = call noundef ptr @_ZN4absl13cord_internal12CordRepBtree10MergeTreesEPS1_S2_(ptr noundef %14, ptr noundef %16)
  store ptr %17, ptr %3, align 8
  br label %26

18:                                               ; preds = %2
  call void @llvm.lifetime.start.p0(i64 8, ptr %6) #3
  %19 = getelementptr inbounds nuw %class.anon.4, ptr %6, i32 0, i32 0
  store ptr %4, ptr %19, align 8, !tbaa !133
  %20 = load ptr, ptr %5, align 8, !tbaa !9
  call void @"_ZN4absl11FunctionRefIFvPNS_13cord_internal7CordRepEmmEEC2IZNS1_12CordRepBtree10AppendSlowEPS7_S3_E3$_0vEERKT_"(ptr noundef nonnull align 8 dereferenceable(16) %7, ptr noundef nonnull align 8 dereferenceable(8) %6)
  %21 = getelementptr inbounds nuw { ptr, ptr }, ptr %7, i32 0, i32 0
  %22 = load ptr, ptr %21, align 8
  %23 = getelementptr inbounds nuw { ptr, ptr }, ptr %7, i32 0, i32 1
  %24 = load ptr, ptr %23, align 8
  call void @_ZN4absl13cord_internal7ConsumeEPNS0_7CordRepENS_11FunctionRefIFvS2_mmEEE(ptr noundef %20, ptr %22, ptr %24)
  %25 = load ptr, ptr %4, align 8, !tbaa !4
  store ptr %25, ptr %3, align 8
  call void @llvm.lifetime.end.p0(i64 8, ptr %6) #3
  br label %26

26:                                               ; preds = %18, %13
  %27 = load ptr, ptr %3, align 8
  ret ptr %27
}